target datalayout = "e-m:e-p270:32:32-p271:32:32-p272:64:64-i64:64-i128:128-f80:128-n8:16:32:64-S128"
target triple = "x86_64-pc-linux-gnu"

%struct._zend_stack = type { i32, i32, i32, ptr }

; Function Attrs: nounwind uwtable
define void @zend_stack_apply_with_argument(ptr noundef %0, i32 noundef %1, ptr noundef %2, ptr noundef %3) #0 {
  %5 = alloca ptr, align 8
  %6 = alloca i32, align 4
  %7 = alloca ptr, align 8
  %8 = alloca ptr, align 8
  %9 = alloca i32, align 4
  store ptr %0, ptr %5, align 8
  store i32 %1, ptr %6, align 4
  store ptr %2, ptr %7, align 8
  store ptr %3, ptr %8, align 8
  %10 = load i32, ptr %6, align 4
  switch i32 %10, label %68 [
    i32 0, label %11
    i32 1, label %40
  ]

11:                                               ; preds = %4
  %12 = load ptr, ptr %5, align 8
  %13 = getelementptr inbounds %struct._zend_stack, ptr %12, i32 0, i32 1
  %14 = load i32, ptr %13, align 4
  %15 = sub nsw i32 %14, 1
  store i32 %15, ptr %9, align 4
  br label %16

16:                                               ; preds = %36, %11
  %17 = load i32, ptr %9, align 4
  %18 = icmp sge i32 %17, 0
  br i1 %18, label %19, label %39

19:                                               ; preds = %16
  %20 = load ptr, ptr %7, align 8
  %21 = load ptr, ptr %5, align 8
  %22 = getelementptr inbounds %struct._zend_stack, ptr %21, i32 0, i32 3
  %23 = load ptr, ptr %22, align 8
  %24 = load ptr, ptr %5, align 8
  %25 = getelementptr inbounds %struct._zend_stack, ptr %24, i32 0, i32 0
  %26 = load i32, ptr %25, align 8
  %27 = load i32, ptr %9, align 4
  %28 = mul nsw i32 %26, %27
  %29 = sext i32 %28 to i64
  %30 = getelementptr inbounds i8, ptr %23, i64 %29
  %31 = load ptr, ptr %8, align 8
  %32 = call i32 %20(ptr noundef %30, ptr noundef %31)
  %33 = icmp ne i32 %32, 0
  br i1 %33, label %34, label %35

34:                                               ; preds = %19
  br label %39

35:                                               ; preds = %19
  br label %36

36:                                               ; preds = %35
  %37 = load i32, ptr %9, align 4
  %38 = add nsw i32 %37, -1
  store i32 %38, ptr %9, align 4
  br label %16

39:                                               ; preds = %34, %16
  br label %68

40:                                               ; preds = %4
  store i32 0, ptr %9, align 4
  br label %41

41:                                               ; preds = %64, %40
  %42 = load i32, ptr %9, align 4
  %43 = load ptr, ptr %5, align 8
  %44 = getelementptr inbounds %struct._zend_stack, ptr %43, i32 0, i32 1
  %45 = load i32, ptr %44, align 4
  %46 = icmp slt i32 %42, %45
  br i1 %46, label %47, label %67

47:                                               ; preds = %41
  %48 = load ptr, ptr %7, align 8
  %49 = load ptr, ptr %5, align 8
  %50 = getelementptr inbounds %struct._zend_stack, ptr %49, i32 0, i32 3
  %51 = load ptr, ptr %50, align 8
  %52 = load ptr, ptr %5, align 8
  %53 = getelementptr inbounds %struct._zend_stack, ptr %52, i32 0, i32 0
  %54 = load i32, ptr %53, align 8
  %55 = load i32, ptr %9, align 4
  %56 = mul nsw i32 %54, %55
  %57 = sext i32 %56 to i64
  %58 = getelementptr inbounds i8, ptr %51, i64 %57
  %59 = load ptr, ptr %8, align 8
  %60 = call i32 %48(ptr noundef %58, ptr noundef %59)
  %61 = icmp ne i32 %60, 0
  br i1 %61, label %62, label %63

62:                                               ; preds = %47
  br label %67

63:                                               ; preds = %47
  br label %64

64:                                               ; preds = %63
  %65 = load i32, ptr %9, align 4
  %66 = add nsw i32 %65, 1
  store i32 %66, ptr %9, align 4
  br label %41

67:                                               ; preds = %62, %41
  br label %68

68:                                               ; preds = %67, %39, %4
  ret void
}