; Function Attrs: nounwind uwtable
define void @zend_stack_apply_with_argument(ptr nocapture noundef readonly %0, i32 noundef %1, ptr nocapture noundef readonly %2, ptr noundef %3) local_unnamed_addr #1 {
  switch i32 %1, label %.loopexit [
    i32 0, label %9
    i32 1, label %.preheader
  ]

.preheader:                                       ; preds = %4
  %5 = getelementptr inbounds i8, ptr %0, i64 16
  %6 = getelementptr inbounds i8, ptr %0, i64 4
  %7 = load i32, ptr %6, align 4
  %8 = icmp sgt i32 %7, 0
  br i1 %8, label %.lr.ph, label %.loopexit

9:                                                ; preds = %4
  %10 = getelementptr inbounds i8, ptr %0, i64 4
  %11 = load i32, ptr %10, align 4
  %12 = getelementptr inbounds i8, ptr %0, i64 16
  br label %13

13:                                               ; preds = %15, %9
  %.0.in = phi i32 [ %11, %9 ], [ %.0, %15 ]
  %14 = icmp sgt i32 %.0.in, 0
  br i1 %14, label %15, label %.loopexit

15:                                               ; preds = %13
  %.0 = add nsw i32 %.0.in, -1
  %16 = load ptr, ptr %12, align 8
  %17 = load i32, ptr %0, align 8
  %18 = mul nsw i32 %17, %.0
  %19 = sext i32 %18 to i64
  %20 = getelementptr inbounds i8, ptr %16, i64 %19
  %21 = tail call i32 %2(ptr noundef %20, ptr noundef %3) #7
  %.not16 = icmp eq i32 %21, 0
  br i1 %.not16, label %13, label %.loopexit

22:                                               ; preds = %.lr.ph
  %23 = add nuw nsw i32 %.118, 1
  %24 = load i32, ptr %6, align 4
  %25 = icmp slt i32 %23, %24
  br i1 %25, label %.lr.ph, label %.loopexit

.lr.ph:                                           ; preds = %.preheader, %22
  %.118 = phi i32 [ %23, %22 ], [ 0, %.preheader ]
  %26 = load ptr, ptr %5, align 8
  %27 = load i32, ptr %0, align 8
  %28 = mul nsw i32 %27, %.118
  %29 = sext i32 %28 to i64
  %30 = getelementptr inbounds i8, ptr %26, i64 %29
  %31 = tail call i32 %2(ptr noundef %30, ptr noundef %3) #7
  %.not = icmp eq i32 %31, 0
  br i1 %.not, label %22, label %.loopexit

.loopexit:                                        ; preds = %.lr.ph, %22, %13, %15, %.preheader, %4
  ret void
}